target datalayout = "e-m:e-p270:32:32-p271:32:32-p272:64:64-i64:64-i128:128-f80:128-n8:16:32:64-S128"
target triple = "x86_64-pc-linux-gnu"

%"class.llvm::FeatureBitset" = type { %"struct.std::array" }
%"struct.std::array" = type { [5 x i64] }
%"class.llvm::RISCVSubtarget" = type { %"struct.llvm::RISCVGenSubtargetInfo", i8, i8, i8, i8, i8, i8, i8, i8, i8, i8, i8, i8, i8, i8, i8, i8, i8, i8, i8, i8, i8, i8, i8, i8, i8, i8, i8, i8, i8, i8, i8, i8, i8, i8, i8, i8, i8, i8, i8, i8, i8, i8, i8, i8, i8, i8, i8, i8, i8, i8, i8, i8, i8, i8, i8, i8, i8, i8, i8, i8, i8, i8, i8, i8, i8, i8, i8, i8, i8, i8, i8, i8, i8, i8, i8, i8, i8, i8, i8, i8, i8, i8, i8, i8, i8, i8, i8, i8, i8, i8, i8, i8, i8, i8, i8, i8, i8, i8, i8, i8, i8, i8, i8, i8, i8, i8, i8, i8, i8, i8, i8, i8, i8, i8, i8, i8, i8, i8, i8, i8, i8, i8, i8, i8, i8, i8, i8, i8, i8, i8, i8, i8, i8, i8, i8, i8, i8, i8, i8, i8, i8, i8, i8, i8, i8, i8, i8, i8, i8, i8, i8, i8, i8, i8, i8, i8, i8, i8, i8, i8, i8, i8, i8, i8, i8, i8, i8, i8, i8, i8, i8, i8, i8, i8, i8, i8, i8, i8, i8, i8, i8, i8, i8, i8, i8, i8, i8, i8, i8, i8, i8, i8, i8, i8, i8, i8, i8, i8, i8, i8, i8, i8, i8, i32, i32, i32, i8, i32, %"class.std::bitset", ptr, %"class.llvm::RISCVFrameLowering", %"class.llvm::RISCVInstrInfo", %"struct.llvm::RISCVRegisterInfo", %"class.llvm::RISCVTargetLowering", %"class.llvm::SelectionDAGTargetInfo", %"class.std::unique_ptr.12", %"class.std::unique_ptr.20", %"class.std::unique_ptr.28", %"class.std::unique_ptr.36" }
%"struct.llvm::RISCVGenSubtargetInfo" = type { %"class.llvm::TargetSubtargetInfo" }
%"class.llvm::TargetSubtargetInfo" = type { %"class.llvm::MCSubtargetInfo" }
%"class.llvm::MCSubtargetInfo" = type { ptr, %"class.llvm::Triple", %"class.std::__cxx11::basic_string", %"class.std::__cxx11::basic_string", %"class.llvm::ArrayRef", %"class.llvm::ArrayRef.0", ptr, ptr, ptr, ptr, ptr, ptr, ptr, %"class.llvm::FeatureBitset", %"class.std::__cxx11::basic_string" }
%"class.llvm::Triple" = type { %"class.std::__cxx11::basic_string", i32, i32, i32, i32, i32, i32 }
%"class.llvm::ArrayRef" = type { ptr, i64 }
%"class.llvm::ArrayRef.0" = type { ptr, i64 }
%"class.std::__cxx11::basic_string" = type { %"struct.std::__cxx11::basic_string<char>::_Alloc_hider", i64, %union.anon }
%"struct.std::__cxx11::basic_string<char>::_Alloc_hider" = type { ptr }
%union.anon = type { i64, [8 x i8] }
%"class.std::bitset" = type { %"struct.std::_Base_bitset" }
%"struct.std::_Base_bitset" = type { [8 x i64] }
%"class.llvm::RISCVFrameLowering" = type { %"class.llvm::TargetFrameLowering.base", ptr }
%"class.llvm::TargetFrameLowering.base" = type <{ ptr, i32, %"struct.llvm::Align", %"struct.llvm::Align", [2 x i8], i32, i8 }>
%"struct.llvm::Align" = type { i8 }
%"class.llvm::RISCVInstrInfo" = type { %"struct.llvm::RISCVGenInstrInfo", ptr }
%"struct.llvm::RISCVGenInstrInfo" = type { %"class.llvm::TargetInstrInfo" }
%"class.llvm::TargetInstrInfo" = type { ptr, %"class.llvm::MCInstrInfo.base", %"class.std::unique_ptr", i32, i32, i32, i32 }
%"class.llvm::MCInstrInfo.base" = type <{ ptr, ptr, ptr, ptr, ptr, i32 }>
%"class.std::unique_ptr" = type { %"struct.std::__uniq_ptr_data" }
%"struct.std::__uniq_ptr_data" = type { %"class.std::__uniq_ptr_impl" }
%"class.std::__uniq_ptr_impl" = type { %"class.std::tuple" }
%"class.std::tuple" = type { %"struct.std::_Tuple_impl" }
%"struct.std::_Tuple_impl" = type { %"struct.std::_Head_base.2" }
%"struct.std::_Head_base.2" = type { ptr }
%"struct.llvm::RISCVRegisterInfo" = type { %"struct.llvm::RISCVGenRegisterInfo.base", [4 x i8] }
%"struct.llvm::RISCVGenRegisterInfo.base" = type { %"class.llvm::TargetRegisterInfo.base" }
%"class.llvm::TargetRegisterInfo.base" = type <{ ptr, %"class.llvm::MCRegisterInfo", ptr, ptr, ptr, ptr, ptr, ptr, %"struct.llvm::LaneBitmask", ptr, ptr, i32 }>
%"class.llvm::MCRegisterInfo" = type { ptr, i32, %"class.llvm::MCRegister", %"class.llvm::MCRegister", ptr, i32, i32, ptr, ptr, ptr, ptr, ptr, ptr, i32, ptr, i32, i32, i32, i32, ptr, ptr, ptr, ptr, %"class.llvm::DenseMap", %"class.llvm::DenseMap", %"class.std::vector" }
%"class.llvm::MCRegister" = type { i32 }
%"class.llvm::DenseMap" = type <{ ptr, i32, i32, i32, [4 x i8] }>
%"class.std::vector" = type { %"struct.std::_Vector_base" }
%"struct.std::_Vector_base" = type { %"struct.std::_Vector_base<std::vector<unsigned short>, std::allocator<std::vector<unsigned short>>>::_Vector_impl" }
%"struct.std::_Vector_base<std::vector<unsigned short>, std::allocator<std::vector<unsigned short>>>::_Vector_impl" = type { %"struct.std::_Vector_base<std::vector<unsigned short>, std::allocator<std::vector<unsigned short>>>::_Vector_impl_data" }
%"struct.std::_Vector_base<std::vector<unsigned short>, std::allocator<std::vector<unsigned short>>>::_Vector_impl_data" = type { ptr, ptr, ptr }
%"struct.llvm::LaneBitmask" = type { i64 }
%"class.llvm::RISCVTargetLowering" = type { %"class.llvm::TargetLowering.base", ptr }
%"class.llvm::TargetLowering.base" = type { %"class.llvm::TargetLoweringBase.base" }
%"class.llvm::TargetLoweringBase.base" = type <{ ptr, ptr, i8, i8, [6 x i8], %"class.llvm::DenseMap.6", i8, [3 x i8], i32, i32, i32, i8, %"struct.llvm::Align", %"struct.llvm::Align", %"struct.llvm::Align", %"struct.llvm::Align", [3 x i8], i32, i32, i32, i32, i32, i8, [3 x i8], %"class.llvm::Register", [4 x i8], [233 x ptr], [233 x i16], [233 x %"class.llvm::MVT"], [4 x i8], [233 x ptr], [233 x i8], i8, [233 x %"class.llvm::MVT"], [233 x [491 x i8]], i8, [233 x [233 x i16]], [233 x [233 x i16]], [233 x [233 x i8]], i8, [233 x [5 x i16]], [24 x [30 x i32]], %"class.llvm::TargetLoweringBase::ValueTypeActionImpl", [62 x i8], i8, %"class.std::map", %"struct.llvm::RTLIB::RuntimeLibcallsInfo", [700 x i32], i32, i32, i32, i32, i32, i32, i32, i32, i32, i32, i8, i8, i8 }>
%"class.llvm::DenseMap.6" = type <{ ptr, i32, i32, i32, [4 x i8] }>
%"class.llvm::Register" = type { i32 }
%"class.llvm::MVT" = type { i16 }
%"class.llvm::TargetLoweringBase::ValueTypeActionImpl" = type { [233 x i8] }
%"class.std::map" = type { %"class.std::_Rb_tree" }
%"class.std::_Rb_tree" = type { %"struct.std::_Rb_tree<std::pair<unsigned int, llvm::MVT::SimpleValueType>, std::pair<const std::pair<unsigned int, llvm::MVT::SimpleValueType>, llvm::MVT::SimpleValueType>, std::_Select1st<std::pair<const std::pair<unsigned int, llvm::MVT::SimpleValueType>, llvm::MVT::SimpleValueType>>, std::less<std::pair<unsigned int, llvm::MVT::SimpleValueType>>>::_Rb_tree_impl" }
%"struct.std::_Rb_tree<std::pair<unsigned int, llvm::MVT::SimpleValueType>, std::pair<const std::pair<unsigned int, llvm::MVT::SimpleValueType>, llvm::MVT::SimpleValueType>, std::_Select1st<std::pair<const std::pair<unsigned int, llvm::MVT::SimpleValueType>, llvm::MVT::SimpleValueType>>, std::less<std::pair<unsigned int, llvm::MVT::SimpleValueType>>>::_Rb_tree_impl" = type { [8 x i8], %"struct.std::_Rb_tree_header" }
%"struct.std::_Rb_tree_header" = type { %"struct.std::_Rb_tree_node_base", i64 }
%"struct.std::_Rb_tree_node_base" = type { i32, ptr, ptr, ptr }
%"struct.llvm::RTLIB::RuntimeLibcallsInfo" = type { [701 x ptr], [700 x i32] }
%"class.llvm::SelectionDAGTargetInfo" = type { ptr }
%"class.std::unique_ptr.12" = type { %"struct.std::__uniq_ptr_data.13" }
%"struct.std::__uniq_ptr_data.13" = type { %"class.std::__uniq_ptr_impl.14" }
%"class.std::__uniq_ptr_impl.14" = type { %"class.std::tuple.15" }
%"class.std::tuple.15" = type { %"struct.std::_Tuple_impl.16" }
%"struct.std::_Tuple_impl.16" = type { %"struct.std::_Head_base.19" }
%"struct.std::_Head_base.19" = type { ptr }
%"class.std::unique_ptr.20" = type { %"struct.std::__uniq_ptr_data.21" }
%"struct.std::__uniq_ptr_data.21" = type { %"class.std::__uniq_ptr_impl.22" }
%"class.std::__uniq_ptr_impl.22" = type { %"class.std::tuple.23" }
%"class.std::tuple.23" = type { %"struct.std::_Tuple_impl.24" }
%"struct.std::_Tuple_impl.24" = type { %"struct.std::_Head_base.27" }
%"struct.std::_Head_base.27" = type { ptr }
%"class.std::unique_ptr.28" = type { %"struct.std::__uniq_ptr_data.29" }
%"struct.std::__uniq_ptr_data.29" = type { %"class.std::__uniq_ptr_impl.30" }
%"class.std::__uniq_ptr_impl.30" = type { %"class.std::tuple.31" }
%"class.std::tuple.31" = type { %"struct.std::_Tuple_impl.32" }
%"struct.std::_Tuple_impl.32" = type { %"struct.std::_Head_base.35" }
%"struct.std::_Head_base.35" = type { ptr }
%"class.std::unique_ptr.36" = type { %"struct.std::__uniq_ptr_data.37" }
%"struct.std::__uniq_ptr_data.37" = type { %"class.std::__uniq_ptr_impl.38" }
%"class.std::__uniq_ptr_impl.38" = type { %"class.std::tuple.39" }
%"class.std::tuple.39" = type { %"struct.std::_Tuple_impl.40" }
%"struct.std::_Tuple_impl.40" = type { %"struct.std::_Head_base.43" }
%"struct.std::_Head_base.43" = type { ptr }

@.str.23 = private unnamed_addr constant [69 x i8] c"riscv-v-vector-bits-min specified is lower than the Zvl*b limitation\00", align 1

; Function Attrs: mustprogress nounwind uwtable
define dso_local noundef i32 @_ZNK4llvm14RISCVSubtarget25getMinRVVVectorSizeInBitsEv(ptr noundef nonnull align 8 dereferenceable(409192) %0) #0 align 2 {
  %2 = alloca i32, align 4
  %3 = alloca ptr, align 8
  store ptr %0, ptr %3, align 8
  %4 = load ptr, ptr %3, align 8
  %5 = getelementptr inbounds nuw %"class.llvm::RISCVSubtarget", ptr %4, i32 0, i32 205
  %6 = load i32, ptr %5, align 8
  %7 = icmp eq i32 %6, -1
  br i1 %7, label %8, label %11

8:                                                ; preds = %1
  %9 = getelementptr inbounds nuw %"class.llvm::RISCVSubtarget", ptr %4, i32 0, i32 204
  %10 = load i32, ptr %9, align 4
  store i32 %10, ptr %2, align 4
  br label %25

11:                                               ; preds = %1
  %12 = getelementptr inbounds nuw %"class.llvm::RISCVSubtarget", ptr %4, i32 0, i32 205
  %13 = load i32, ptr %12, align 8
  %14 = icmp ne i32 %13, 0
  br i1 %14, label %15, label %22

15:                                               ; preds = %11
  %16 = getelementptr inbounds nuw %"class.llvm::RISCVSubtarget", ptr %4, i32 0, i32 205
  %17 = load i32, ptr %16, align 8
  %18 = getelementptr inbounds nuw %"class.llvm::RISCVSubtarget", ptr %4, i32 0, i32 204
  %19 = load i32, ptr %18, align 4
  %20 = icmp ult i32 %17, %19
  br i1 %20, label %21, label %22

21:                                               ; preds = %15
  call void @_ZN4llvm18report_fatal_errorEPKcb(ptr noundef @.str.23, i1 noundef zeroext true) #13
  unreachable

22:                                               ; preds = %15, %11
  %23 = getelementptr inbounds nuw %"class.llvm::RISCVSubtarget", ptr %4, i32 0, i32 205
  %24 = load i32, ptr %23, align 8
  store i32 %24, ptr %2, align 4
  br label %25

25:                                               ; preds = %22, %8
  %26 = load i32, ptr %2, align 4
  ret i32 %26
}

; Function Attrs: mustprogress nounwind uwtable
define linkonce_odr hidden noundef zeroext i1 @_ZNK4llvm14RISCVSubtarget16hasVInstructionsEv(ptr noundef nonnull align 8 dereferenceable(409192) %0) #0 comdat align 2 {
  %2 = alloca ptr, align 8
  store ptr %0, ptr %2, align 8
  %3 = load ptr, ptr %2, align 8
  %4 = getelementptr inbounds nuw %"class.llvm::RISCVSubtarget", ptr %3, i32 0, i32 134
  %5 = load i8, ptr %4, align 1
  %6 = trunc i8 %5 to i1
  ret i1 %6
}

; Function Attrs: mustprogress nounwind uwtable
define dso_local noundef zeroext i1 @_ZNK4llvm14RISCVSubtarget27useRVVForFixedLengthVectorsEv(ptr noundef nonnull align 8 dereferenceable(409192) %0) #0 align 2 {
  %2 = alloca ptr, align 8
  store ptr %0, ptr %2, align 8
  %3 = load ptr, ptr %2, align 8
  %4 = call noundef zeroext i1 @_ZNK4llvm14RISCVSubtarget16hasVInstructionsEv(ptr noundef nonnull align 8 dereferenceable(409192) %3)
  br i1 %4, label %5, label %8

5:                                                ; preds = %1
  %6 = call noundef i32 @_ZNK4llvm14RISCVSubtarget25getMinRVVVectorSizeInBitsEv(ptr noundef nonnull align 8 dereferenceable(409192) %3)
  %7 = icmp uge i32 %6, 64
  br label %8

8:                                                ; preds = %5, %1
  %9 = phi i1 [ false, %1 ], [ %7, %5 ]
  ret i1 %9
}