; Function Attrs: mustprogress nounwind uwtable
define dso_local noundef zeroext i1 @_ZNK4llvm14RISCVSubtarget27useRVVForFixedLengthVectorsEv(ptr noundef nonnull readonly align 8 captures(none) dereferenceable(409192) %0) local_unnamed_addr #0 align 2 {
  %2 = getelementptr inbounds nuw i8, ptr %0, i64 421
  %3 = load i8, ptr %2, align 1
  %4 = trunc i8 %3 to i1
  br i1 %4, label %5, label %16

5:                                                ; preds = %1
  %6 = getelementptr inbounds nuw i8, ptr %0, i64 496
  %7 = load i32, ptr %6, align 8
  switch i32 %7, label %10 [
    i32 -1, label %8
    i32 0, label %_ZNK4llvm14RISCVSubtarget25getMinRVVVectorSizeInBitsEv.exit
  ]

8:                                                ; preds = %5
  %9 = getelementptr inbounds nuw i8, ptr %0, i64 492
  %.0.pre.i = load i32, ptr %9, align 4
  br label %_ZNK4llvm14RISCVSubtarget25getMinRVVVectorSizeInBitsEv.exit

10:                                               ; preds = %5
  %11 = getelementptr inbounds nuw i8, ptr %0, i64 492
  %12 = load i32, ptr %11, align 4
  %13 = icmp ult i32 %7, %12
  br i1 %13, label %14, label %_ZNK4llvm14RISCVSubtarget25getMinRVVVectorSizeInBitsEv.exit

14:                                               ; preds = %10
  tail call void @_ZN4llvm18report_fatal_errorEPKcb(ptr noundef nonnull @.str.23, i1 noundef zeroext true) #22
  unreachable

_ZNK4llvm14RISCVSubtarget25getMinRVVVectorSizeInBitsEv.exit: ; preds = %5, %8, %10
  %.0.i = phi i32 [ %.0.pre.i, %8 ], [ %7, %5 ], [ %7, %10 ]
  %15 = icmp ugt i32 %.0.i, 63
  br label %16

16:                                               ; preds = %_ZNK4llvm14RISCVSubtarget25getMinRVVVectorSizeInBitsEv.exit, %1
  %17 = phi i1 [ false, %1 ], [ %15, %_ZNK4llvm14RISCVSubtarget25getMinRVVVectorSizeInBitsEv.exit ]
  ret i1 %17
}